; Function Attrs: mustprogress nofree nounwind memory(readwrite, inaccessiblemem: write) uwtable
define void @_ZN19colvarproxy_volmaps33compute_rms_volmaps_applied_forceEv(ptr nocapture noundef nonnull align 8 dereferenceable(120) %0) local_unnamed_addr #11 align 2 {
  %2 = getelementptr inbounds i8, ptr %0, i64 80
  %3 = load ptr, ptr %2, align 8
  %4 = getelementptr inbounds i8, ptr %0, i64 88
  %5 = load ptr, ptr %4, align 8
  %.not1213.i = icmp eq ptr %3, %5
  br i1 %.not1213.i, label %_Z19compute_norm2_statsIdLi0ELb0EEdRKSt6vectorIT_SaIS1_EEPi.exit, label %.lr.ph.i

.lr.ph.i:                                         ; preds = %1, %.lr.ph.i
  %.015.i = phi double [ %8, %.lr.ph.i ], [ 0.000000e+00, %1 ]
  %.sroa.07.014.i = phi ptr [ %9, %.lr.ph.i ], [ %3, %1 ]
  %6 = load double, ptr %.sroa.07.014.i, align 8
  %7 = fmul double %6, %6
  %8 = fadd double %.015.i, %7
  %9 = getelementptr inbounds i8, ptr %.sroa.07.014.i, i64 8
  %.not12.i = icmp eq ptr %9, %5
  br i1 %.not12.i, label %_Z19compute_norm2_statsIdLi0ELb0EEdRKSt6vectorIT_SaIS1_EEPi.exit, label %.lr.ph.i, !llvm.loop !7

_Z19compute_norm2_statsIdLi0ELb0EEdRKSt6vectorIT_SaIS1_EEPi.exit: ; preds = %.lr.ph.i, %1
  %.0.lcssa.i = phi double [ 0.000000e+00, %1 ], [ %8, %.lr.ph.i ]
  %10 = ptrtoint ptr %5 to i64
  %11 = ptrtoint ptr %3 to i64
  %12 = sub i64 %10, %11
  %13 = ashr exact i64 %12, 3
  %14 = uitofp i64 %13 to double
  %15 = fdiv double %.0.lcssa.i, %14
  %.1.i = select i1 %.not1213.i, double %.0.lcssa.i, double %15
  %16 = tail call noundef double @sqrt(double noundef %.1.i) #15
  %17 = getelementptr inbounds i8, ptr %0, i64 104
  store double %16, ptr %17, align 8
  ret void
}